target datalayout = "e-m:e-p270:32:32-p271:32:32-p272:64:64-i64:64-i128:128-f80:128-n8:16:32:64-S128"
target triple = "x86_64-pc-linux-gnu"

@stderr = external global ptr, align 8
@stdout = external global ptr, align 8
@.str.31 = private unnamed_addr constant [113 x i8] c"\0AOptions:\0A\09(Only the last occurrence of an option is used.)\0A\0A\09-h or -? or --help    print this message and exit\0A\00", align 1
@.str.34 = private unnamed_addr constant [138 x i8] c"\0A\09-w or --writepkg  write the output package even if no items are removed\0A\09                  or added (e.g., for only swapping the data)\0A\00", align 1
@.str.35 = private unnamed_addr constant [187 x i8] c"\0A\09-m mode or --matchmode mode  set the matching mode for item names with\0A\09                             wildcards\0A\09        noslash: the '*' wildcard does not match the '/' tree separator\0A\00", align 1
@.str.36 = private unnamed_addr constant [160 x i8] c"\0A\09--ignore-deps     Do not fail if not all resource dependencies are met. Use this\0A\09                  option if the missing resources come from another source.\00", align 1
@.str.40 = private unnamed_addr constant [20 x i8] c"\22%&'()*+,-./:;<=>?_\00", align 1
@.str.41 = private unnamed_addr constant [200 x i8] c"\09Items for removal or extraction may contain a single '*' wildcard\0A\09character. The '*' matches zero or more characters.\0A\09If --matchmode noslash (-m noslash) is set, then the '*'\0A\09does not match '/'.\0A\00", align 1

; Function Attrs: mustprogress nounwind uwtable
define internal void @_ZL10printUsagePKca(ptr noundef %0, i8 noundef signext %1) #3 {
  %3 = alloca ptr, align 8
  %4 = alloca i8, align 1
  %5 = alloca ptr, align 8
  store ptr %0, ptr %3, align 8, !tbaa !12
  store i8 %1, ptr %4, align 1, !tbaa !16
  call void @llvm.lifetime.start.p0(i64 8, ptr %5) #10
  %6 = load i8, ptr %4, align 1, !tbaa !16
  %7 = icmp ne i8 %6, 0
  br i1 %7, label %8, label %10

8:                                                ; preds = %2
  %9 = load ptr, ptr @stdout, align 8, !tbaa !19
  br label %12

10:                                               ; preds = %2
  %11 = load ptr, ptr @stderr, align 8, !tbaa !19
  br label %12

12:                                               ; preds = %10, %8
  %13 = phi ptr [ %9, %8 ], [ %11, %10 ]
  store ptr %13, ptr %5, align 8, !tbaa !19
  %14 = load ptr, ptr %5, align 8, !tbaa !19
  %15 = load i8, ptr %4, align 1, !tbaa !16
  %16 = icmp ne i8 %15, 0
  %17 = select i1 %16, i8 85, i8 117
  %18 = sext i8 %17 to i32
  %19 = load ptr, ptr %3, align 8, !tbaa !12
  %20 = call i32 (ptr, ptr, ...) @fprintf(ptr noundef %14, ptr noundef @.str.27, i32 noundef %18, ptr noundef %19) #10
  %21 = load i8, ptr %4, align 1, !tbaa !16
  %22 = icmp ne i8 %21, 0
  br i1 %22, label %23, label %54

23:                                               ; preds = %12
  %24 = load ptr, ptr %5, align 8, !tbaa !19
  %25 = call i32 (ptr, ptr, ...) @fprintf(ptr noundef %24, ptr noundef @.str.28) #10
  %26 = load ptr, ptr %5, align 8, !tbaa !19
  %27 = call i32 (ptr, ptr, ...) @fprintf(ptr noundef %26, ptr noundef @.str.29) #10
  %28 = load ptr, ptr %5, align 8, !tbaa !19
  %29 = call i32 (ptr, ptr, ...) @fprintf(ptr noundef %28, ptr noundef @.str.30) #10
  %30 = load ptr, ptr %5, align 8, !tbaa !19
  %31 = call i32 (ptr, ptr, ...) @fprintf(ptr noundef %30, ptr noundef @.str.31) #10
  %32 = load ptr, ptr %5, align 8, !tbaa !19
  %33 = call i32 (ptr, ptr, ...) @fprintf(ptr noundef %32, ptr noundef @.str.32) #10
  %34 = load ptr, ptr %5, align 8, !tbaa !19
  %35 = call i32 (ptr, ptr, ...) @fprintf(ptr noundef %34, ptr noundef @.str.33) #10
  %36 = load ptr, ptr %5, align 8, !tbaa !19
  %37 = call i32 (ptr, ptr, ...) @fprintf(ptr noundef %36, ptr noundef @.str.34) #10
  %38 = load ptr, ptr %5, align 8, !tbaa !19
  %39 = call i32 (ptr, ptr, ...) @fprintf(ptr noundef %38, ptr noundef @.str.35) #10
  %40 = load ptr, ptr %5, align 8, !tbaa !19
  %41 = call i32 (ptr, ptr, ...) @fprintf(ptr noundef %40, ptr noundef @.str.36) #10
  %42 = load ptr, ptr %5, align 8, !tbaa !19
  %43 = call i32 (ptr, ptr, ...) @fprintf(ptr noundef %42, ptr noundef @.str.37) #10
  %44 = load ptr, ptr %5, align 8, !tbaa !19
  %45 = call i32 (ptr, ptr, ...) @fprintf(ptr noundef %44, ptr noundef @.str.38) #10
  %46 = load ptr, ptr %5, align 8, !tbaa !19
  %47 = call i32 (ptr, ptr, ...) @fprintf(ptr noundef %46, ptr noundef @.str.39, ptr noundef @.str.40) #10
  %48 = load ptr, ptr %5, align 8, !tbaa !19
  %49 = call i32 (ptr, ptr, ...) @fprintf(ptr noundef %48, ptr noundef @.str.41) #10
  %50 = load ptr, ptr %5, align 8, !tbaa !19
  %51 = call i32 (ptr, ptr, ...) @fprintf(ptr noundef %50, ptr noundef @.str.42) #10
  %52 = load ptr, ptr %5, align 8, !tbaa !19
  %53 = call i32 (ptr, ptr, ...) @fprintf(ptr noundef %52, ptr noundef @.str.43) #10
  br label %54

54:                                               ; preds = %23, %12
  call void @llvm.lifetime.end.p0(i64 8, ptr %5) #10
  ret void
}