; Function Attrs: mustprogress nofree norecurse nounwind uwtable
define internal fastcc void @_ZL10printUsagePKca(ptr noundef %0, i8 noundef signext range(i8 0, 2) %1) unnamed_addr #3 {
  %.not = icmp eq i8 %1, 0
  %3 = load ptr, ptr @stdout, align 8
  %4 = load ptr, ptr @stderr, align 8
  %5 = select i1 %.not, ptr %4, ptr %3
  %6 = select i1 %.not, i32 117, i32 85
  %7 = tail call i32 (ptr, ptr, ...) @fprintf(ptr noundef %5, ptr noundef nonnull @.str.27, i32 noundef %6, ptr noundef %0) #18
  br i1 %.not, label %24, label %8

8:                                                ; preds = %2
  %9 = tail call i64 @fwrite(ptr nonnull @.str.28, i64 420, i64 1, ptr %3)
  %10 = tail call i64 @fwrite(ptr nonnull @.str.29, i64 319, i64 1, ptr %3)
  %11 = tail call i64 @fwrite(ptr nonnull @.str.30, i64 358, i64 1, ptr %3)
  %12 = tail call i64 @fwrite(ptr nonnull @.str.31, i64 112, i64 1, ptr %3)
  %13 = tail call i64 @fwrite(ptr nonnull @.str.32, i64 367, i64 1, ptr %3)
  %14 = tail call i64 @fwrite(ptr nonnull @.str.33, i64 299, i64 1, ptr %3)
  %15 = tail call i64 @fwrite(ptr nonnull @.str.34, i64 137, i64 1, ptr %3)
  %16 = tail call i64 @fwrite(ptr nonnull @.str.35, i64 186, i64 1, ptr %3)
  %17 = tail call i64 @fwrite(ptr nonnull @.str.36, i64 159, i64 1, ptr %3)
  %18 = tail call i64 @fwrite(ptr nonnull @.str.37, i64 418, i64 1, ptr %3)
  %19 = tail call i64 @fwrite(ptr nonnull @.str.38, i64 979, i64 1, ptr %3)
  %20 = tail call i32 (ptr, ptr, ...) @fprintf(ptr noundef %3, ptr noundef nonnull @.str.39, ptr noundef nonnull @.str.40) #18
  %21 = tail call i64 @fwrite(ptr nonnull @.str.41, i64 199, i64 1, ptr %3)
  %22 = tail call i64 @fwrite(ptr nonnull @.str.42, i64 348, i64 1, ptr %3)
  %23 = tail call i64 @fwrite(ptr nonnull @.str.43, i64 368, i64 1, ptr %3)
  br label %24

24:                                               ; preds = %8, %2
  ret void
}